; Function Attrs: nounwind uwtable
define noalias ptr @OSSL_STORE_SEARCH_by_alias(ptr noundef %0) local_unnamed_addr #0 {
  %2 = tail call noalias ptr @CRYPTO_zalloc(i64 noundef 48, ptr noundef nonnull @.str.2, i32 noundef 965) #9
  %3 = icmp eq ptr %2, null
  br i1 %3, label %8, label %4

4:                                                ; preds = %1
  store i32 4, ptr %2, align 8, !tbaa !47
  %5 = getelementptr inbounds nuw i8, ptr %2, i64 32
  store ptr %0, ptr %5, align 8, !tbaa !55
  %6 = tail call i64 @strlen(ptr noundef nonnull dereferenceable(1) %0) #10
  %7 = getelementptr inbounds nuw i8, ptr %2, i64 40
  store i64 %6, ptr %7, align 8, !tbaa !56
  br label %8

8:                                                ; preds = %1, %4
  ret ptr %2
}